; Function Attrs: mustprogress nounwind uwtable
define void @_ZN32pxrInternal_v0_24__pxrReserved__10Tf_RemnantD2Ev(ptr noundef nonnull align 8 dereferenceable(15) initializes((0, 8)) %0) unnamed_addr #0 align 2 personality ptr @__gxx_personality_v0 {
  store ptr getelementptr inbounds nuw inrange(-16, 32) (i8, ptr @_ZTVN32pxrInternal_v0_24__pxrReserved__10Tf_RemnantE, i64 16), ptr %0, align 8
  %2 = getelementptr inbounds nuw i8, ptr %0, i64 12
  %3 = load i8, ptr %2, align 4
  %4 = trunc i8 %3 to i1
  br i1 %4, label %5, label %6

5:                                                ; preds = %1
  invoke void @_ZN32pxrInternal_v0_24__pxrReserved__17Tf_ExpiryNotifier6InvokeEPKv(ptr noundef nonnull %0)
          to label %6 unwind label %7

6:                                                ; preds = %5, %1
  tail call void @_ZN32pxrInternal_v0_24__pxrReserved__15TfSimpleRefBaseD2Ev(ptr noundef nonnull align 8 dereferenceable(12) %0) #12
  ret void

7:                                                ; preds = %5
  %8 = landingpad { ptr, i32 }
          catch ptr null
  %9 = extractvalue { ptr, i32 } %8, 0
  tail call void @__clang_call_terminate(ptr %9) #13
  unreachable
}